target datalayout = "e-m:e-p270:32:32-p271:32:32-p272:64:64-i64:64-i128:128-f80:128-n8:16:32:64-S128"
target triple = "x86_64-pc-linux-gnu"

@.str.52 = private unnamed_addr constant [19 x i8] c"index out of range\00", align 1

; Function Attrs: nounwind uwtable
define internal i32 @luaB_select(ptr noundef %0) #0 {
  %2 = alloca i32, align 4
  %3 = alloca ptr, align 8
  %4 = alloca i32, align 4
  %5 = alloca i32, align 4
  %6 = alloca i64, align 8
  store ptr %0, ptr %3, align 8, !tbaa !4
  call void @llvm.lifetime.start.p0(i64 4, ptr %4) #6
  %7 = load ptr, ptr %3, align 8, !tbaa !4
  %8 = call i32 @lua_gettop(ptr noundef %7)
  store i32 %8, ptr %4, align 4, !tbaa !10
  %9 = load ptr, ptr %3, align 8, !tbaa !4
  %10 = call i32 @lua_type(ptr noundef %9, i32 noundef 1)
  %11 = icmp eq i32 %10, 4
  br i1 %11, label %12, label %23

12:                                               ; preds = %1
  %13 = load ptr, ptr %3, align 8, !tbaa !4
  %14 = call ptr @lua_tolstring(ptr noundef %13, i32 noundef 1, ptr noundef null)
  %15 = load i8, ptr %14, align 1, !tbaa !9
  %16 = sext i8 %15 to i32
  %17 = icmp eq i32 %16, 35
  br i1 %17, label %18, label %23

18:                                               ; preds = %12
  %19 = load ptr, ptr %3, align 8, !tbaa !4
  %20 = load i32, ptr %4, align 4, !tbaa !10
  %21 = sub nsw i32 %20, 1
  %22 = sext i32 %21 to i64
  call void @lua_pushinteger(ptr noundef %19, i64 noundef %22)
  store i32 1, ptr %2, align 4
  store i32 1, ptr %5, align 4
  br label %59

23:                                               ; preds = %12, %1
  call void @llvm.lifetime.start.p0(i64 8, ptr %6) #6
  %24 = load ptr, ptr %3, align 8, !tbaa !4
  %25 = call i64 @luaL_checkinteger(ptr noundef %24, i32 noundef 1)
  store i64 %25, ptr %6, align 8, !tbaa !12
  %26 = load i64, ptr %6, align 8, !tbaa !12
  %27 = icmp slt i64 %26, 0
  br i1 %27, label %28, label %33

28:                                               ; preds = %23
  %29 = load i32, ptr %4, align 4, !tbaa !10
  %30 = sext i32 %29 to i64
  %31 = load i64, ptr %6, align 8, !tbaa !12
  %32 = add nsw i64 %30, %31
  store i64 %32, ptr %6, align 8, !tbaa !12
  br label %42

33:                                               ; preds = %23
  %34 = load i64, ptr %6, align 8, !tbaa !12
  %35 = load i32, ptr %4, align 4, !tbaa !10
  %36 = sext i32 %35 to i64
  %37 = icmp sgt i64 %34, %36
  br i1 %37, label %38, label %41

38:                                               ; preds = %33
  %39 = load i32, ptr %4, align 4, !tbaa !10
  %40 = sext i32 %39 to i64
  store i64 %40, ptr %6, align 8, !tbaa !12
  br label %41

41:                                               ; preds = %38, %33
  br label %42

42:                                               ; preds = %41, %28
  %43 = load i64, ptr %6, align 8, !tbaa !12
  %44 = icmp sle i64 1, %43
  %45 = zext i1 %44 to i32
  %46 = icmp ne i32 %45, 0
  %47 = zext i1 %46 to i32
  %48 = sext i32 %47 to i64
  %49 = call i64 @llvm.expect.i64(i64 %48, i64 1)
  %50 = icmp ne i64 %49, 0
  br i1 %50, label %54, label %51

51:                                               ; preds = %42
  %52 = load ptr, ptr %3, align 8, !tbaa !4
  %53 = call i32 @luaL_argerror(ptr noundef %52, i32 noundef 1, ptr noundef @.str.52)
  br label %54

54:                                               ; preds = %51, %42
  %55 = load i32, ptr %4, align 4, !tbaa !10
  %56 = load i64, ptr %6, align 8, !tbaa !12
  %57 = trunc i64 %56 to i32
  %58 = sub nsw i32 %55, %57
  store i32 %58, ptr %2, align 4
  store i32 1, ptr %5, align 4
  call void @llvm.lifetime.end.p0(i64 8, ptr %6) #6
  br label %59

59:                                               ; preds = %54, %18
  call void @llvm.lifetime.end.p0(i64 4, ptr %4) #6
  %60 = load i32, ptr %2, align 4
  ret i32 %60
}