; Function Attrs: nounwind uwtable
define internal i32 @luaB_select(ptr noundef %0) #0 {
  %2 = tail call i32 @lua_gettop(ptr noundef %0) #9
  %3 = tail call i32 @lua_type(ptr noundef %0, i32 noundef 1) #9
  %4 = icmp eq i32 %3, 4
  br i1 %4, label %5, label %12

5:                                                ; preds = %1
  %6 = tail call ptr @lua_tolstring(ptr noundef %0, i32 noundef 1, ptr noundef null) #9
  %7 = load i8, ptr %6, align 1, !tbaa !5
  %8 = icmp eq i8 %7, 35
  br i1 %8, label %9, label %12

9:                                                ; preds = %5
  %10 = add nsw i32 %2, -1
  %11 = sext i32 %10 to i64
  tail call void @lua_pushinteger(ptr noundef %0, i64 noundef %11) #9
  br label %23

12:                                               ; preds = %5, %1
  %13 = tail call i64 @luaL_checkinteger(ptr noundef %0, i32 noundef 1) #9
  %14 = icmp slt i64 %13, 0
  %15 = sext i32 %2 to i64
  %16 = add nsw i64 %13, %15
  %spec.select = tail call i64 @llvm.smin.i64(i64 %13, i64 %15)
  %.0 = select i1 %14, i64 %16, i64 %spec.select
  %17 = icmp sgt i64 %.0, 0
  br i1 %17, label %20, label %18, !prof !8

18:                                               ; preds = %12
  %19 = tail call i32 @luaL_argerror(ptr noundef %0, i32 noundef 1, ptr noundef nonnull @.str.52) #9
  br label %20

20:                                               ; preds = %18, %12
  %21 = trunc i64 %.0 to i32
  %22 = sub nsw i32 %2, %21
  br label %23

23:                                               ; preds = %20, %9
  %.016 = phi i32 [ 1, %9 ], [ %22, %20 ]
  ret i32 %.016
}